target datalayout = "e-m:e-p270:32:32-p271:32:32-p272:64:64-i64:64-i128:128-f80:128-n8:16:32:64-S128"
target triple = "x86_64-pc-linux-gnu"

%struct.AV1Frame = type { %union.anon.2, ptr, ptr, ptr, i32, i32, [8 x i8], [8 x i8], [8 x [6 x i32]], [2 x i8], %struct.AV1RawFilmGrainParams, i8, i8, [8 x i8], [8 x i8], i8 }
%union.anon.2 = type { %struct.ProgressFrame }
%struct.ProgressFrame = type { ptr, ptr }
%struct.AV1RawFilmGrainParams = type { i8, i16, i8, i8, i8, [14 x i8], [14 x i8], i8, i8, [10 x i8], [10 x i8], i8, [10 x i8], [10 x i8], i8, i8, [24 x i8], [25 x i8], [25 x i8], i8, i8, i8, i8, i16, i8, i8, i16, i8, i8 }

; Function Attrs: nounwind uwtable
define internal void @av1_frame_unref(ptr noundef %0) #1 {
  %2 = alloca ptr, align 8
  store ptr %0, ptr %2, align 8, !tbaa !184
  %3 = load ptr, ptr %2, align 8, !tbaa !184
  %4 = getelementptr inbounds nuw %struct.AV1Frame, ptr %3, i32 0, i32 0
  call void @ff_progress_frame_unref(ptr noundef %4)
  %5 = load ptr, ptr %2, align 8, !tbaa !184
  %6 = getelementptr inbounds nuw %struct.AV1Frame, ptr %5, i32 0, i32 1
  call void @av_refstruct_unref(ptr noundef %6)
  %7 = load ptr, ptr %2, align 8, !tbaa !184
  %8 = getelementptr inbounds nuw %struct.AV1Frame, ptr %7, i32 0, i32 2
  call void @av_refstruct_unref(ptr noundef %8)
  %9 = load ptr, ptr %2, align 8, !tbaa !184
  %10 = getelementptr inbounds nuw %struct.AV1Frame, ptr %9, i32 0, i32 3
  store ptr null, ptr %10, align 8, !tbaa !187
  %11 = load ptr, ptr %2, align 8, !tbaa !184
  %12 = getelementptr inbounds nuw %struct.AV1Frame, ptr %11, i32 0, i32 4
  store i32 0, ptr %12, align 8, !tbaa !190
  %13 = load ptr, ptr %2, align 8, !tbaa !184
  %14 = getelementptr inbounds nuw %struct.AV1Frame, ptr %13, i32 0, i32 5
  store i32 0, ptr %14, align 4, !tbaa !189
  %15 = load ptr, ptr %2, align 8, !tbaa !184
  %16 = getelementptr inbounds nuw %struct.AV1Frame, ptr %15, i32 0, i32 9
  %17 = getelementptr inbounds [2 x i8], ptr %16, i64 0, i64 0
  call void @llvm.memset.p0.i64(ptr align 8 %17, i8 0, i64 2, i1 false)
  %18 = load ptr, ptr %2, align 8, !tbaa !184
  %19 = getelementptr inbounds nuw %struct.AV1Frame, ptr %18, i32 0, i32 10
  call void @llvm.memset.p0.i64(ptr align 2 %19, i8 0, i64 166, i1 false)
  %20 = load ptr, ptr %2, align 8, !tbaa !184
  %21 = getelementptr inbounds nuw %struct.AV1Frame, ptr %20, i32 0, i32 11
  store i8 0, ptr %21, align 8, !tbaa !191
  ret void
}