; Function Attrs: nounwind uwtable
define internal fastcc void @av1_frame_unref(ptr noundef %0) unnamed_addr #1 {
  tail call void @ff_progress_frame_unref(ptr noundef %0) #9
  %2 = getelementptr inbounds nuw i8, ptr %0, i64 16
  tail call void @av_refstruct_unref(ptr noundef nonnull %2) #9
  %3 = getelementptr inbounds nuw i8, ptr %0, i64 24
  tail call void @av_refstruct_unref(ptr noundef nonnull %3) #9
  %4 = getelementptr inbounds nuw i8, ptr %0, i64 32
  %5 = getelementptr inbounds nuw i8, ptr %0, i64 256
  tail call void @llvm.memset.p0.i64(ptr noundef nonnull align 8 dereferenceable(16) %4, i8 0, i64 16, i1 false)
  tail call void @llvm.memset.p0.i64(ptr noundef nonnull align 8 dereferenceable(169) %5, i8 0, i64 169, i1 false)
  ret void
}